---
triple:          'arm64-apple-darwin'
binary-path:     test
relocations:
  - { offset: 0x364FC, size: 0x8, addend: 0x0, symName: __ZStL8__ioinit, symObjAddr: 0x16B085, symBinAddr: 0x100010DE0, symSize: 0x0 }
  - { offset: 0x38D80, size: 0x8, addend: 0x0, symName: __GLOBAL__sub_I_test.cpp, symObjAddr: 0x8540, symBinAddr: 0x1000087C0, symSize: 0x3C }
  - { offset: 0x3979D, size: 0x8, addend: 0x0, symName: __ZSt13__adjust_heapIN9__gnu_cxx17__normal_iteratorIPiSt6vectorIiSaIiEEEEliNS0_5__ops15_Iter_comp_iterIZN7atcoder8internal8sa_naiveERKS5_EUliiE_EEEvT_T0_SG_T1_T2_, symObjAddr: 0x8, symBinAddr: 0x100000848, symSize: 0x238 }
  - { offset: 0x3AF7E, size: 0x8, addend: 0x0, symName: __ZN7atcoder8internal8fft_infoINS_13static_modintILi469762049ELPv0EEELi3ELS3_0EEC1Ev, symObjAddr: 0x67EC, symBinAddr: 0x10000702C, symSize: 0x2F4 }
  - { offset: 0x3AFED, size: 0x8, addend: 0x0, symName: __ZN7atcoder8internal8fft_infoINS_13static_modintILi469762049ELPv0EEELi3ELS3_0EEC1Ev, symObjAddr: 0x67EC, symBinAddr: 0x10000702C, symSize: 0x2F4 }
  - { offset: 0x3B00C, size: 0x8, addend: 0x0, symName: __ZN7atcoder8internal8fft_infoINS_13static_modintILi469762049ELPv0EEELi3ELS3_0EEC1Ev, symObjAddr: 0x67EC, symBinAddr: 0x10000702C, symSize: 0x2F4 }
  - { offset: 0x3BB27, size: 0x8, addend: 0x0, symName: __ZN7atcoder8internal8fft_infoINS_13static_modintILi167772161ELPv0EEELi3ELS3_0EEC1Ev, symObjAddr: 0x5460, symBinAddr: 0x100005CA0, symSize: 0x2C0 }
  - { offset: 0x3BB96, size: 0x8, addend: 0x0, symName: __ZN7atcoder8internal8fft_infoINS_13static_modintILi167772161ELPv0EEELi3ELS3_0EEC1Ev, symObjAddr: 0x5460, symBinAddr: 0x100005CA0, symSize: 0x2C0 }
  - { offset: 0x3BBB5, size: 0x8, addend: 0x0, symName: __ZN7atcoder8internal8fft_infoINS_13static_modintILi167772161ELPv0EEELi3ELS3_0EEC1Ev, symObjAddr: 0x5460, symBinAddr: 0x100005CA0, symSize: 0x2C0 }
  - { offset: 0x3C6D0, size: 0x8, addend: 0x0, symName: __ZN7atcoder8internal8fft_infoINS_13static_modintILi754974721ELPv0EEELi11ELS3_0EEC1Ev, symObjAddr: 0x4010, symBinAddr: 0x100004850, symSize: 0x2F8 }
  - { offset: 0x3C73F, size: 0x8, addend: 0x0, symName: __ZN7atcoder8internal8fft_infoINS_13static_modintILi754974721ELPv0EEELi11ELS3_0EEC1Ev, symObjAddr: 0x4010, symBinAddr: 0x100004850, symSize: 0x2F8 }
  - { offset: 0x3C75E, size: 0x8, addend: 0x0, symName: __ZN7atcoder8internal8fft_infoINS_13static_modintILi754974721ELPv0EEELi11ELS3_0EEC1Ev, symObjAddr: 0x4010, symBinAddr: 0x100004850, symSize: 0x2F8 }
  - { offset: 0x3D572, size: 0x8, addend: 0x0, symName: __ZSt16__insertion_sortIN9__gnu_cxx17__normal_iteratorIPiSt6vectorIiSaIiEEEENS0_5__ops15_Iter_comp_iterIZN7atcoder8internal8sa_naiveERKS5_EUliiE_EEEvT_SF_T0_, symObjAddr: 0x240, symBinAddr: 0x100000A80, symSize: 0x208 }
  - { offset: 0x3DC9E, size: 0x8, addend: 0x0, symName: __ZN7atcoder8internal13butterfly_invINS_13static_modintILi469762049ELPv0EEELS3_0EEEvRSt6vectorIT_SaIS6_EE, symObjAddr: 0x6AE0, symBinAddr: 0x100007320, symSize: 0x320 }
  - { offset: 0x3DCFF, size: 0x8, addend: 0x0, symName: __ZZN7atcoder8internal13butterfly_invINS_13static_modintILi469762049ELPv0EEELS3_0EEEvRSt6vectorIT_SaIS6_EEE4info, symObjAddr: 0x8588, symBinAddr: 0x100010008, symSize: 0x0 }
  - { offset: 0x3E1BD, size: 0x8, addend: 0x0, symName: __ZN7atcoder8internal9butterflyINS_13static_modintILi469762049ELPv0EEELS3_0EEEvRSt6vectorIT_SaIS6_EE, symObjAddr: 0x6E00, symBinAddr: 0x100007640, symSize: 0x38C }
  - { offset: 0x3E21E, size: 0x8, addend: 0x0, symName: __ZZN7atcoder8internal9butterflyINS_13static_modintILi469762049ELPv0EEELS3_0EEEvRSt6vectorIT_SaIS6_EEE4info, symObjAddr: 0x87F0, symBinAddr: 0x100010270, symSize: 0x0 }
  - { offset: 0x3E94D, size: 0x8, addend: 0x0, symName: __ZN7atcoder8internal13butterfly_invINS_13static_modintILi167772161ELPv0EEELS3_0EEEvRSt6vectorIT_SaIS6_EE, symObjAddr: 0x5720, symBinAddr: 0x100005F60, symSize: 0x300 }
  - { offset: 0x3E9AE, size: 0x8, addend: 0x0, symName: __ZZN7atcoder8internal13butterfly_invINS_13static_modintILi167772161ELPv0EEELS3_0EEEvRSt6vectorIT_SaIS6_EEE4info, symObjAddr: 0x8A58, symBinAddr: 0x1000104D8, symSize: 0x0 }
  - { offset: 0x3EE6C, size: 0x8, addend: 0x0, symName: __ZN7atcoder8internal9butterflyINS_13static_modintILi167772161ELPv0EEELS3_0EEEvRSt6vectorIT_SaIS6_EE, symObjAddr: 0x5A20, symBinAddr: 0x100006260, symSize: 0x360 }
  - { offset: 0x3EECD, size: 0x8, addend: 0x0, symName: __ZZN7atcoder8internal9butterflyINS_13static_modintILi167772161ELPv0EEELS3_0EEEvRSt6vectorIT_SaIS6_EEE4info, symObjAddr: 0x8CA8, symBinAddr: 0x100010728, symSize: 0x0 }
  - { offset: 0x3F5FC, size: 0x8, addend: 0x0, symName: __ZN7atcoder8internal13butterfly_invINS_13static_modintILi754974721ELPv0EEELS3_0EEEvRSt6vectorIT_SaIS6_EE, symObjAddr: 0x4308, symBinAddr: 0x100004B48, symSize: 0x338 }
  - { offset: 0x3F65D, size: 0x8, addend: 0x0, symName: __ZZN7atcoder8internal13butterfly_invINS_13static_modintILi754974721ELPv0EEELS3_0EEEvRSt6vectorIT_SaIS6_EEE4info, symObjAddr: 0x8EF8, symBinAddr: 0x100010978, symSize: 0x0 }
  - { offset: 0x3FB1B, size: 0x8, addend: 0x0, symName: __ZN7atcoder8internal9butterflyINS_13static_modintILi754974721ELPv0EEELS3_0EEEvRSt6vectorIT_SaIS6_EE, symObjAddr: 0x4640, symBinAddr: 0x100004E80, symSize: 0x3C0 }
  - { offset: 0x3FB7C, size: 0x8, addend: 0x0, symName: __ZZN7atcoder8internal9butterflyINS_13static_modintILi754974721ELPv0EEELS3_0EEEvRSt6vectorIT_SaIS6_EEE4info, symObjAddr: 0x9130, symBinAddr: 0x100010BB0, symSize: 0x0 }
  - { offset: 0x4055E, size: 0x8, addend: 0x0, symName: __ZSt16__introsort_loopIN9__gnu_cxx17__normal_iteratorIPiSt6vectorIiSaIiEEEElNS0_5__ops15_Iter_comp_iterIZN7atcoder8internal11sa_doublingERKS5_EUliiE_EEEvT_SF_T0_T1_, symObjAddr: 0xA40, symBinAddr: 0x100001280, symSize: 0x848 }
  - { offset: 0x415F4, size: 0x8, addend: 0x0, symName: __ZSt16__introsort_loopIN9__gnu_cxx17__normal_iteratorIPiSt6vectorIiSaIiEEEElNS0_5__ops15_Iter_comp_iterIZN7atcoder8internal8sa_naiveERKS5_EUliiE_EEEvT_SF_T0_T1_, symObjAddr: 0x448, symBinAddr: 0x100000C88, symSize: 0x5F8 }
  - { offset: 0x423DC, size: 0x8, addend: 0x0, symName: __ZN7atcoder8internal17convolution_naiveINS_13static_modintILi469762049ELPv0EEELS3_0EEESt6vectorIT_SaIS6_EERKS8_SA_, symObjAddr: 0x3DA8, symBinAddr: 0x1000045E8, symSize: 0x268 }
  - { offset: 0x42A79, size: 0x8, addend: 0x0, symName: __ZN7atcoder8internal17convolution_naiveINS_13static_modintILi167772161ELPv0EEELS3_0EEESt6vectorIT_SaIS6_EERKS8_SA_, symObjAddr: 0x3B50, symBinAddr: 0x100004390, symSize: 0x258 }
  - { offset: 0x43116, size: 0x8, addend: 0x0, symName: __ZN7atcoder8internal17convolution_naiveINS_13static_modintILi754974721ELPv0EEELS3_0EEESt6vectorIT_SaIS6_EERKS8_SA_, symObjAddr: 0x38E0, symBinAddr: 0x100004120, symSize: 0x270 }
  - { offset: 0x446BC, size: 0x8, addend: 0x0, symName: __ZN7atcoder11z_algorithmIiEESt6vectorIiSaIiEERKS1_IT_SaIS4_EE, symObjAddr: 0x3600, symBinAddr: 0x100003E40, symSize: 0x190 }
  - { offset: 0x44C05, size: 0x8, addend: 0x0, symName: __ZN7atcoder9lcp_arrayIiEESt6vectorIiSaIiEERKS1_IT_SaIS4_EERKS3_, symObjAddr: 0x32A0, symBinAddr: 0x100003AE0, symSize: 0x20C }
  - { offset: 0x4566F, size: 0x8, addend: 0x0, symName: __ZN7atcoder8internal5sa_isILi10ELi40EEESt6vectorIiSaIiEERKS4_i, symObjAddr: 0x2540, symBinAddr: 0x100002D80, symSize: 0xBA8 }
  - { offset: 0x457F0, size: 0x8, addend: 0x0, symName: __ZZN7atcoder8internal5sa_isILi10ELi40EEESt6vectorIiSaIiEERKS4_iENKUlS6_E_clES6_, symObjAddr: 0x2250, symBinAddr: 0x100002A90, symSize: 0x2F0 }
  - { offset: 0x4AE99, size: 0x8, addend: 0x0, symName: __ZN7atcoder11convolutionILj469762049ExLPv0EEESt6vectorIT0_SaIS3_EERKS5_S7_, symObjAddr: 0x718C, symBinAddr: 0x1000079CC, symSize: 0xA74 }
  - { offset: 0x4D6D9, size: 0x8, addend: 0x0, symName: __ZN7atcoder11convolutionILj167772161ExLPv0EEESt6vectorIT0_SaIS3_EERKS5_S7_, symObjAddr: 0x5D80, symBinAddr: 0x1000065C0, symSize: 0xA6C }
  - { offset: 0x4FF19, size: 0x8, addend: 0x0, symName: __ZN7atcoder11convolutionILj754974721ExLPv0EEESt6vectorIT0_SaIS3_EERKS5_S7_, symObjAddr: 0x4A00, symBinAddr: 0x100005240, symSize: 0xA60 }
  - { offset: 0x52866, size: 0x8, addend: 0x0, symName: _main, symObjAddr: 0x84E0, symBinAddr: 0x100008880, symSize: 0x5C }
  - { offset: 0x5288F, size: 0x8, addend: 0x0, symName: _main, symObjAddr: 0x84E0, symBinAddr: 0x100008880, symSize: 0x5C }
  - { offset: 0x52A35, size: 0x8, addend: 0x0, symName: __Z5solvev, symObjAddr: 0x20A0, symBinAddr: 0x1000028E0, symSize: 0x1B0 }
  - { offset: 0x530E8, size: 0x8, addend: 0x0, symName: __ZN7atcoder11z_algorithmERKNSt7__cxx1112basic_stringIcSt11char_traitsIcESaIcEEE, symObjAddr: 0x3790, symBinAddr: 0x100003FD0, symSize: 0x150 }
  - { offset: 0x536ED, size: 0x8, addend: 0x0, symName: __ZN7atcoder9lcp_arrayERKNSt7__cxx1112basic_stringIcSt11char_traitsIcESaIcEEERKSt6vectorIiSaIiEE, symObjAddr: 0x34AC, symBinAddr: 0x100003CEC, symSize: 0x154 }
  - { offset: 0x53D0F, size: 0x8, addend: 0x0, symName: __ZN7atcoder12suffix_arrayERKNSt7__cxx1112basic_stringIcSt11char_traitsIcESaIcEEE, symObjAddr: 0x3180, symBinAddr: 0x1000039C0, symSize: 0x120 }
  - { offset: 0x54323, size: 0x8, addend: 0x0, symName: __ZN7atcoder12suffix_arrayERKSt6vectorIiSaIiEEi, symObjAddr: 0x30E8, symBinAddr: 0x100003928, symSize: 0x98 }
  - { offset: 0x5440C, size: 0x8, addend: 0x0, symName: __ZN7atcoder8internal11sa_doublingERKSt6vectorIiSaIiEE, symObjAddr: 0x19C0, symBinAddr: 0x100002200, symSize: 0x6E0 }
  - { offset: 0x55F83, size: 0x8, addend: 0x0, symName: __ZN7atcoder8internal8sa_naiveERKSt6vectorIiSaIiEE, symObjAddr: 0x1728, symBinAddr: 0x100001F68, symSize: 0x298 }
  - { offset: 0x568AD, size: 0x8, addend: 0x0, symName: __ZN7atcoder9floor_sumExxxx, symObjAddr: 0x1650, symBinAddr: 0x100001E90, symSize: 0xD8 }
  - { offset: 0x569A5, size: 0x8, addend: 0x0, symName: __ZN7atcoder3crtERKSt6vectorIxSaIxEES4_, symObjAddr: 0x14C0, symBinAddr: 0x100001D00, symSize: 0x190 }
  - { offset: 0x56BA4, size: 0x8, addend: 0x0, symName: __ZN7atcoder7inv_modExx, symObjAddr: 0x13F0, symBinAddr: 0x100001C30, symSize: 0xD0 }
  - { offset: 0x56CBB, size: 0x8, addend: 0x0, symName: __ZN7atcoder7pow_modExxi, symObjAddr: 0x1304, symBinAddr: 0x100001B44, symSize: 0xEC }
  - { offset: 0x56E7A, size: 0x8, addend: 0x0, symName: __ZN7atcoder14convolution_llERKSt6vectorIxSaIxEES4_, symObjAddr: 0x7C00, symBinAddr: 0x100008440, symSize: 0x374 }
  - { offset: 0x5704B, size: 0x8, addend: 0x0, symName: __ZZN7atcoder14convolution_llERKSt6vectorIxSaIxEES4_E6offset, symObjAddr: 0x9360, symBinAddr: 0x100008FA8, symSize: 0x0 }
  - { offset: 0x579B4, size: 0x8, addend: 0x0, symName: __ZN7atcoder8internal18floor_sum_unsignedEyyyy, symObjAddr: 0x12A0, symBinAddr: 0x100001AE0, symSize: 0x64 }
  - { offset: 0x57EA6, size: 0x8, addend: 0x0, symName: __ZNKSt5ctypeIcE8do_widenEc, symObjAddr: 0x0, symBinAddr: 0x100000840, symSize: 0x8 }
  - { offset: 0x57ED1, size: 0x8, addend: 0x0, symName: __ZNK7atcoder13static_modintILi754974721ELPv0EE3invEv.part.0, symObjAddr: 0x81B0, symBinAddr: 0x1000087FC, symSize: 0x28 }
  - { offset: 0x57EF0, size: 0x8, addend: 0x0, symName: __ZNSt12_Vector_baseIxSaIxEED2Ev.isra.0, symObjAddr: 0x81D8, symBinAddr: 0x100008824, symSize: 0x10 }
  - { offset: 0x57F0E, size: 0x8, addend: 0x0, symName: __ZNSt12_Vector_baseIxSaIxEED2Ev.isra.0, symObjAddr: 0x81D8, symBinAddr: 0x100008824, symSize: 0x10 }
  - { offset: 0x58017, size: 0x8, addend: 0x0, symName: __ZNSt12_Vector_baseIN7atcoder13static_modintILi469762049ELPv0EEESaIS3_EED2Ev.isra.0, symObjAddr: 0x81E8, symBinAddr: 0x100008834, symSize: 0x10 }
  - { offset: 0x58035, size: 0x8, addend: 0x0, symName: __ZNSt12_Vector_baseIN7atcoder13static_modintILi469762049ELPv0EEESaIS3_EED2Ev.isra.0, symObjAddr: 0x81E8, symBinAddr: 0x100008834, symSize: 0x10 }
  - { offset: 0x5813E, size: 0x8, addend: 0x0, symName: __ZNSt12_Vector_baseIN7atcoder13static_modintILi167772161ELPv0EEESaIS3_EED2Ev.isra.0, symObjAddr: 0x81F8, symBinAddr: 0x100008844, symSize: 0x10 }
  - { offset: 0x5815C, size: 0x8, addend: 0x0, symName: __ZNSt12_Vector_baseIN7atcoder13static_modintILi167772161ELPv0EEESaIS3_EED2Ev.isra.0, symObjAddr: 0x81F8, symBinAddr: 0x100008844, symSize: 0x10 }
  - { offset: 0x58265, size: 0x8, addend: 0x0, symName: __ZNSt12_Vector_baseIN7atcoder13static_modintILi754974721ELPv0EEESaIS3_EED2Ev.isra.0, symObjAddr: 0x8208, symBinAddr: 0x100008854, symSize: 0x10 }
  - { offset: 0x58283, size: 0x8, addend: 0x0, symName: __ZNSt12_Vector_baseIN7atcoder13static_modintILi754974721ELPv0EEESaIS3_EED2Ev.isra.0, symObjAddr: 0x8208, symBinAddr: 0x100008854, symSize: 0x10 }
  - { offset: 0x5838C, size: 0x8, addend: 0x0, symName: __ZNSt12_Vector_baseIiSaIiEED2Ev.isra.0, symObjAddr: 0x8218, symBinAddr: 0x100008864, symSize: 0x10 }
  - { offset: 0x583AA, size: 0x8, addend: 0x0, symName: __ZNSt12_Vector_baseIiSaIiEED2Ev.isra.0, symObjAddr: 0x8218, symBinAddr: 0x100008864, symSize: 0x10 }
  - { offset: 0x584B7, size: 0x8, addend: 0x0, symName: __ZN7atcoder8internal11countr_zeroEj, symObjAddr: 0x1288, symBinAddr: 0x100001AC8, symSize: 0x18 }
...
